(dp0
(I7
I2
I10
tp1
(lp2
I1
as(I3
I1
I10
tp3
(lp4
I1
aI4
as(I2
I7
I2
tp5
(lp6
I1
aI6
aI7
as(I6
I8
I9
tp7
(lp8
I5
aI8
as(I7
I2
I3
tp9
(lp10
I4
aI10
as(I3
I1
I8
tp11
(lp12
I5
aI9
as(I2
I7
I4
tp13
(lp14
I3
as(I7
I2
I1
tp15
(lp16
I2
as(I3
I1
I6
tp17
(lp18
I2
aI5
as(I8
I6
I2
tp19
(lp20
I6
aI7
as(I2
I7
I6
tp21
(lp22
I5
aI7
as(I3
I1
I4
tp23
(lp24
I8
aI10
as(I3
I1
I2
tp25
(lp26
I1
as(I6
I10
I9
tp27
(lp28
I1
as(I8
I6
I8
tp29
(lp30
I4
aI5
aI9
as(I4
I9
I8
tp31
(lp32
I5
aI9
as(I10
I8
I7
tp33
(lp34
I3
aI6
as(I9
I4
I6
tp35
(lp36
I5
aI7
as(I7
I5
I6
tp37
(lp38
I2
aI5
as(I6
I10
I7
tp39
(lp40
I2
aI3
as(I8
I6
I10
tp41
(lp42
I1
as(I4
I9
I10
tp43
(lp44
I1
aI3
as(I6
I8
I10
tp45
(lp46
I4
as(I1
I3
I7
tp47
(lp48
I3
as(I7
I2
I4
tp49
(lp50
I8
aI10
as(I7
I5
I4
tp51
(lp52
I8
as(I6
I10
I5
tp53
(lp54
I8
aI9
as(I7
I2
I6
tp55
(lp56
I2
aI5
as(I4
I9
I4
tp57
(lp58
I3
aI8
aI10
as(I10
I6
I9
tp59
(lp60
I5
as(I9
I4
I2
tp61
(lp62
I6
aI7
as(I5
I7
I2
tp63
(lp64
I6
aI7
as(I1
I3
I5
tp65
(lp66
I6
aI8
as(I7
I5
I2
tp67
(lp68
I1
aI6
as(I6
I10
I3
tp69
(lp70
I4
aI10
as(I4
I9
I6
tp71
(lp72
I5
as(I8
I10
I8
tp73
(lp74
I4
aI5
aI9
as(I10
I6
I7
tp75
(lp76
I2
aI6
as(I10
I8
I6
tp77
(lp78
I5
as(I2
I9
I6
tp79
(lp80
I5
as(I6
I10
I1
tp81
(lp82
I10
as(I10
I6
I5
tp83
(lp84
I6
as(I5
I7
I9
tp85
(lp86
I1
aI8
as(I2
I9
I4
tp87
(lp88
I8
as(I4
I9
I2
tp89
(lp90
I1
aI6
as(I10
I6
I3
tp91
(lp92
I4
aI7
as(I5
I7
I1
tp93
(lp94
I2
aI10
as(I2
I9
I2
tp95
(lp96
I1
aI6
aI7
as(I10
I8
I10
tp97
(lp98
I1
aI3
aI4
as(I10
I6
I1
tp99
(lp100
I2
aI9
as(I10
I8
I1
tp101
(lp102
I2
aI9
as(I9
I4
I10
tp103
(lp104
I3
aI4
as(I5
I7
I5
tp105
(lp106
I6
aI8
aI9
as(I7
I5
I10
tp107
(lp108
I1
as(I9
I2
I4
tp109
(lp110
I3
aI10
as(I10
I8
I4
tp111
(lp112
I3
aI8
as(I9
I4
I8
tp113
(lp114
I4
aI5
as(I5
I7
I3
tp115
(lp116
I7
as(I5
I4
I3
tp117
(lp118
I4
aI10
as(I7
I5
I8
tp119
(lp120
I5
aI9
as(I9
I2
I6
tp121
(lp122
I2
aI7
as(I8
I10
I2
tp123
(lp124
I1
aI7
as(I4
I5
I2
tp125
(lp126
I6
as(I1
I3
I9
tp127
(lp128
I5
aI8
as(I5
I4
I1
tp129
(lp130
I10
as(I2
I7
I9
tp131
(lp132
I5
aI8
as(I9
I2
I8
tp133
(lp134
I4
aI5
as(I8
I10
I4
tp135
(lp136
I3
aI10
as(I4
I5
I4
tp137
(lp138
I3
aI8
aI10
as(I5
I4
I7
tp139
(lp140
I3
as(I2
I9
I10
tp141
(lp142
I1
aI4
as(I9
I2
I10
tp143
(lp144
I1
aI3
as(I8
I10
I6
tp145
(lp146
I2
aI7
as(I4
I5
I6
tp147
(lp148
I5
as(I5
I4
I5
tp149
(lp150
I6
aI8
aI9
as(I2
I9
I8
tp151
(lp152
I9
as(I6
I8
I2
tp153
(lp154
I1
aI7
as(I4
I5
I8
tp155
(lp156
I5
aI9
as(I8
I6
I5
tp157
(lp158
I6
aI9
as(I6
I8
I4
tp159
(lp160
I8
as(I4
I5
I10
tp161
(lp162
I1
aI3
as(I10
I8
I3
tp163
(lp164
I4
aI7
as(I5
I4
I9
tp165
(lp166
I1
aI8
as(I8
I6
I7
tp167
(lp168
I2
aI6
as(I2
I7
I1
tp169
(lp170
I9
aI10
as(I7
I2
I7
tp171
(lp172
I2
aI3
aI6
as(I3
I1
I9
tp173
(lp174
I1
as(I8
I6
I1
tp175
(lp176
I2
as(I2
I7
I3
tp177
(lp178
I7
as(I3
I1
I7
tp179
(lp180
I2
aI6
as(I8
I6
I3
tp181
(lp182
I7
as(I2
I7
I5
tp183
(lp184
I6
aI8
as(I5
I7
I10
tp185
(lp186
I3
as(I10
I8
I2
tp187
(lp188
I6
aI7
as(I3
I1
I5
tp189
(lp190
I9
as(I7
I2
I8
tp191
(lp192
I5
aI9
as(I3
I1
I3
tp193
(lp194
I4
aI7
aI10
as(I8
I6
I9
tp195
(lp196
I1
aI5
as(I1
I3
I1
tp197
(lp198
I2
aI9
aI10
as(I7
I5
I7
tp199
(lp200
I2
aI3
aI6
as(I6
I10
I8
tp201
(lp202
I4
as(I9
I4
I7
tp203
(lp204
I3
as(I6
I10
I6
tp205
(lp206
I2
aI5
aI7
as(I10
I6
I10
tp207
(lp208
I1
aI3
aI4
as(I9
I4
I5
tp209
(lp210
I6
aI8
as(I1
I3
I6
tp211
(lp212
I7
as(I7
I5
I3
tp213
(lp214
I4
aI10
as(I6
I10
I4
tp215
(lp216
I10
as(I4
I9
I5
tp217
(lp218
I9
as(I8
I10
I9
tp219
(lp220
I1
aI5
as(I10
I6
I8
tp221
(lp222
I5
as(I9
I4
I3
tp223
(lp224
I4
as(I1
I3
I4
tp225
(lp226
I3
aI10
as(I7
I5
I1
tp227
(lp228
I9
as(I6
I10
I2
tp229
(lp230
I1
aI7
as(I4
I9
I7
tp231
(lp232
I2
aI6
as(I9
I4
I1
tp233
(lp234
I2
aI10
as(I1
I3
I2
tp235
(lp236
I6
aI7
as(I2
I9
I7
tp237
(lp238
I3
aI6
as(I4
I9
I1
tp239
(lp240
I2
aI9
as(I10
I8
I9
tp241
(lp242
I5
aI8
as(I10
I6
I4
tp243
(lp244
I3
aI8
as(I5
I7
I8
tp245
(lp246
I4
aI9
as(I2
I9
I5
tp247
(lp248
I8
aI9
as(I9
I2
I1
tp249
(lp250
I2
aI10
as(I4
I9
I3
tp251
(lp252
I7
aI10
as(I10
I6
I2
tp253
(lp254
I6
aI7
as(I5
I7
I6
tp255
(lp256
I2
aI7
as(I2
I9
I3
tp257
(lp258
I4
aI10
as(I9
I2
I3
tp259
(lp260
I7
as(I8
I10
I1
tp261
(lp262
I2
aI10
as(I5
I7
I4
tp263
(lp264
I3
as(I5
I4
I2
tp265
(lp266
I1
as(I2
I9
I1
tp267
(lp268
I9
aI10
as(I7
I5
I9
tp269
(lp270
I5
aI8
as(I9
I2
I5
tp271
(lp272
I6
as(I8
I10
I3
tp273
(lp274
I10
as(I4
I5
I1
tp275
(lp276
I2
aI9
as(I9
I4
I9
tp277
(lp278
I1
aI5
aI8
as(I1
I3
I10
tp279
(lp280
I3
aI4
as(I2
I7
I8
tp281
(lp282
I4
aI5
as(I9
I2
I7
tp283
(lp284
I2
as(I8
I10
I5
tp285
(lp286
I6
aI9
as(I4
I5
I3
tp287
(lp288
I7
aI10
as(I1
I3
I8
tp289
(lp290
I4
as(I5
I4
I6
tp291
(lp292
I2
aI7
as(I7
I2
I9
tp293
(lp294
I1
as(I2
I7
I10
tp295
(lp296
I3
aI4
as(I9
I2
I9
tp297
(lp298
I1
aI5
aI8
as(I6
I8
I1
tp299
(lp300
I9
aI10
as(I8
I10
I7
tp301
(lp302
I3
as(I6
I8
I3
tp303
(lp304
I4
as(I4
I5
I7
tp305
(lp306
I6
as(I5
I4
I10
tp307
(lp308
I3
aI4
as(I6
I8
I5
tp309
(lp310
I8
aI9
as(I4
I5
I9
tp311
(lp312
I5
aI8
as(I6
I8
I6
tp313
(lp314
I2
aI5
aI7
as(I5
I4
I8
tp315
(lp316
I4
aI9
as(I8
I6
I4
tp317
(lp318
I3
aI10
as(I6
I8
I7
tp319
(lp320
I2
aI3
as(I10
I8
I5
tp321
(lp322
I8
as(I7
I2
I5
tp323
(lp324
I6
aI8
aI9
as.